Certificate:
    Data:
        Version: 1 (0x0)
        Serial Number: 3 (0x3)
        Signature Algorithm: md5WithRSAEncryption
        Issuer: C=US, ST=California, L=Santa Clara, O=EWN, CN=EWN Root CA/emailAddress=aawais@edgewaternetworks.com
        Validity
            Not Before: Feb 13 17:00:58 2012 GMT
            Not After : Feb 12 17:00:58 2013 GMT
        Subject: C=US, OU=Edgewater, CN=10.10.10.148
        Subject Public Key Info:
            Public Key Algorithm: rsaEncryption
                Public-Key: (2048 bit)
                Modulus:
                    00:ba:cf:df:63:78:08:05:ac:66:88:1e:08:8d:3f:
                    17:8b:59:e3:97:35:40:b0:7f:41:e3:90:6b:75:45:
                    be:a0:84:ea:e8:d3:8d:ba:fd:f1:13:3e:e8:d1:cd:
                    04:8f:9b:fa:18:64:8a:5a:fe:99:a7:21:30:c9:ad:
                    33:37:f9:9a:07:20:d5:1a:05:85:91:fa:75:de:f6:
                    bf:a3:93:dd:5e:04:de:ce:8d:24:e3:9a:4a:b6:1b:
                    8f:de:1a:bd:f2:93:ff:1c:95:b2:5e:8d:a3:9c:df:
                    ed:67:d6:fa:0d:21:d8:91:97:8a:5d:38:59:0f:da:
                    02:4e:ad:b2:fd:62:77:48:40:3c:a3:0c:cb:3e:4c:
                    28:01:b9:24:ce:3f:f6:c5:ba:77:6d:da:a6:38:b9:
                    17:50:5d:be:4e:63:08:22:f7:c4:10:01:aa:0b:df:
                    c9:24:01:6f:5d:55:30:c4:12:16:ad:18:f4:58:f9:
                    01:79:ad:3d:27:6f:27:70:9d:9f:af:81:dd:ca:72:
                    d7:70:38:fd:39:aa:b1:be:4d:54:bf:90:77:42:a9:
                    74:01:3a:e8:18:de:7a:04:8a:d7:d0:3f:a9:c8:14:
                    d7:01:22:db:fe:46:b1:19:0e:d7:3c:c8:13:ea:d4:
                    17:f6:4c:58:b8:a8:14:b4:6e:06:9d:d3:a2:94:4f:
                    f7:f5
                Exponent: 65537 (0x10001)
    Signature Algorithm: md5WithRSAEncryption
        be:87:02:12:ee:e2:ae:ce:62:49:10:ed:6c:ad:07:84:55:f1:
        ec:93:8e:73:2a:e0:4e:63:a4:83:7f:4b:69:03:20:d2:ce:9a:
        d4:34:9e:0c:6b:4a:c0:11:cd:d3:8b:ca:ab:d7:3e:9b:ba:e4:
        38:f2:30:91:4c:7e:04:f8:08:16:79:3d:58:9c:b9:c8:3c:bb:
        2e:bb:54:51:9d:7d:b9:3b:4d:bc:ea:4d:51:8d:a2:f4:da:6b:
        62:12:68:dd:85:d9:aa:40:cb:63:09:e1:16:27:2e:3b:be:54:
        17:88:4c:05:2a:50:04:a9:25:a8:06:c6:6a:38:2b:18:4f:e0:
        02:ed:d4:fb:6d:26:6d:bf:a0:02:c0:8c:88:d3:68:32:0d:2c:
        9e:3d:f1:a6:52:5b:d7:f7:8b:b1:4d:e1:dd:40:b8:45:0f:ef:
        66:af:40:f4:8c:33:a1:56:0b:7d:ea:e3:6c:1b:e3:48:84:15:
        e2:45:ec:0e:90:b8:4a:5c:34:d9:18:a6:1a:79:0a:4f:af:23:
        32:54:29:87:5a:8b:ca:0a:4f:3a:dd:55:b6:91:0f:55:9f:ee:
        4d:a6:7a:61:f3:98:a8:7d:84:08:e4:92:2f:51:68:b1:9c:dd:
        6b:90:fc:8e:28:14:2d:d1:b2:e9:dd:d0:70:3a:c7:6a:29:2c:
        25:00:ce:e8
-----BEGIN CERTIFICATE-----
MIIDNjCCAh4CAQMwDQYJKoZIhvcNAQEEBQAwgYkxCzAJBgNVBAYTAlVTMRMwEQYD
VQQIEwpDYWxpZm9ybmlhMRQwEgYDVQQHEwtTYW50YSBDbGFyYTEMMAoGA1UEChMD
RVdOMRQwEgYDVQQDEwtFV04gUm9vdCBDQTErMCkGCSqGSIb3DQEJARYcYWF3YWlz
QGVkZ2V3YXRlcm5ldHdvcmtzLmNvbTAeFw0xMjAyMTMxNzAwNThaFw0xMzAyMTIx
NzAwNThaMDgxCzAJBgNVBAYTAlVTMRIwEAYDVQQLEwlFZGdld2F0ZXIxFTATBgNV
BAMTDDEwLjEwLjEwLjE0ODCCASIwDQYJKoZIhvcNAQEBBQADggEPADCCAQoCggEB
ALrP32N4CAWsZogeCI0/F4tZ45c1QLB/QeOQa3VFvqCE6ujTjbr98RM+6NHNBI+b
+hhkilr+machMMmtMzf5mgcg1RoFhZH6dd72v6OT3V4E3s6NJOOaSrYbj94avfKT
/xyVsl6No5zf7WfW+g0h2JGXil04WQ/aAk6tsv1id0hAPKMMyz5MKAG5JM4/9sW6
d23apji5F1Bdvk5jCCL3xBABqgvfySQBb11VMMQSFq0Y9Fj5AXmtPSdvJ3Cdn6+B
3cpy13A4/Tmqsb5NVL+Qd0KpdAE66BjeegSK19A/qcgU1wEi2/5GsRkO1zzIE+rU
F/ZMWLioFLRuBp3TopRP9/UCAwEAATANBgkqhkiG9w0BAQQFAAOCAQEAvocCEu7i
rs5iSRDtbK0HhFXx7JOOcyrgTmOkg39LaQMg0s6a1DSeDGtKwBHN04vKq9c+m7rk
OPIwkUx+BPgIFnk9WJy5yDy7LrtUUZ19uTtNvOpNUY2i9NprYhJo3YXZqkDLYwnh
FicuO75UF4hMBSpQBKklqAbGajgrGE/gAu3U+20mbb+gAsCMiNNoMg0snj3xplJb
1/eLsU3h3UC4RQ/vZq9A9IwzoVYLferjbBvjSIQV4kXsDpC4Slw02RimGnkKT68j
MlQph1qLygpPOt1VtpEPVZ/uTaZ6YfOYqH2ECOSSL1FosZzda5D8jigULdGy6d3Q
cDrHaiksJQDO6A==
-----END CERTIFICATE-----
